; Function Attrs: nofree norecurse nosync nounwind memory(argmem: read) uwtable
define internal range(i32 -1, 2) i32 @q_compareitems(ptr noundef readonly captures(none) %0, ptr noundef readonly captures(none) %1, i64 noundef %2) #5 {
  %.not1820 = icmp sgt i64 %2, 0
  br i1 %.not1820, label %.lr.ph, label %.loopexit

4:                                                ; preds = %.lr.ph
  %5 = add nuw nsw i64 %.01421, 1
  %exitcond.not = icmp eq i64 %5, %2
  br i1 %exitcond.not, label %.loopexit, label %.lr.ph, !llvm.loop !69

.lr.ph:                                           ; preds = %3, %4
  %.01421 = phi i64 [ %5, %4 ], [ 0, %3 ]
  %6 = getelementptr i64, ptr %0, i64 %.01421
  %7 = load i64, ptr %6, align 8, !tbaa !67
  %8 = getelementptr i64, ptr %1, i64 %.01421
  %9 = load i64, ptr %8, align 8, !tbaa !67
  %.not = icmp eq i64 %7, %9
  br i1 %.not, label %4, label %10

10:                                               ; preds = %.lr.ph
  %11 = icmp slt i64 %7, %9
  %12 = select i1 %11, i32 -1, i32 1
  br label %.loopexit

.loopexit:                                        ; preds = %4, %3, %10
  %spec.select = phi i32 [ %12, %10 ], [ 0, %3 ], [ 0, %4 ]
  ret i32 %spec.select
}